target datalayout = "e-m:e-p270:32:32-p271:32:32-p272:64:64-i64:64-i128:128-f80:128-n8:16:32:64-S128"
target triple = "x86_64-pc-linux-gnu"

%class.MD5 = type { i8, [64 x i8], [2 x i32], [4 x i32], [16 x i8] }
%"class.std::__cxx11::basic_string" = type { %"struct.std::__cxx11::basic_string<char>::_Alloc_hider", i64, %union.anon }
%"struct.std::__cxx11::basic_string<char>::_Alloc_hider" = type { ptr }
%union.anon = type { i64, [8 x i8] }

; Function Attrs: mustprogress uwtable
define void @_ZN3MD56updateEPKhj(ptr noundef nonnull align 4 dereferenceable(108) %0, ptr noundef %1, i32 noundef %2) #4 align 2 {
  %4 = alloca ptr, align 8
  %5 = alloca ptr, align 8
  %6 = alloca i32, align 4
  %7 = alloca i32, align 4
  %8 = alloca i32, align 4
  %9 = alloca i32, align 4
  store ptr %0, ptr %4, align 8, !tbaa !6
  store ptr %1, ptr %5, align 8, !tbaa !18
  store i32 %2, ptr %6, align 4, !tbaa !14
  %10 = load ptr, ptr %4, align 8
  call void @llvm.lifetime.start.p0(i64 4, ptr %7) #3
  %11 = getelementptr inbounds nuw %class.MD5, ptr %10, i32 0, i32 2
  %12 = getelementptr inbounds [2 x i32], ptr %11, i64 0, i64 0
  %13 = load i32, ptr %12, align 4, !tbaa !14
  %14 = udiv i32 %13, 8
  %15 = urem i32 %14, 64
  store i32 %15, ptr %7, align 4, !tbaa !14
  %16 = load i32, ptr %6, align 4, !tbaa !14
  %17 = shl i32 %16, 3
  %18 = getelementptr inbounds nuw %class.MD5, ptr %10, i32 0, i32 2
  %19 = getelementptr inbounds [2 x i32], ptr %18, i64 0, i64 0
  %20 = load i32, ptr %19, align 4, !tbaa !14
  %21 = add i32 %20, %17
  store i32 %21, ptr %19, align 4, !tbaa !14
  %22 = load i32, ptr %6, align 4, !tbaa !14
  %23 = shl i32 %22, 3
  %24 = icmp ult i32 %21, %23
  br i1 %24, label %25, label %30

25:                                               ; preds = %3
  %26 = getelementptr inbounds nuw %class.MD5, ptr %10, i32 0, i32 2
  %27 = getelementptr inbounds [2 x i32], ptr %26, i64 0, i64 1
  %28 = load i32, ptr %27, align 4, !tbaa !14
  %29 = add i32 %28, 1
  store i32 %29, ptr %27, align 4, !tbaa !14
  br label %30

30:                                               ; preds = %25, %3
  %31 = load i32, ptr %6, align 4, !tbaa !14
  %32 = lshr i32 %31, 29
  %33 = getelementptr inbounds nuw %class.MD5, ptr %10, i32 0, i32 2
  %34 = getelementptr inbounds [2 x i32], ptr %33, i64 0, i64 1
  %35 = load i32, ptr %34, align 4, !tbaa !14
  %36 = add i32 %35, %32
  store i32 %36, ptr %34, align 4, !tbaa !14
  call void @llvm.lifetime.start.p0(i64 4, ptr %8) #3
  %37 = load i32, ptr %7, align 4, !tbaa !14
  %38 = sub i32 64, %37
  store i32 %38, ptr %8, align 4, !tbaa !14
  call void @llvm.lifetime.start.p0(i64 4, ptr %9) #3
  %39 = load i32, ptr %6, align 4, !tbaa !14
  %40 = load i32, ptr %8, align 4, !tbaa !14
  %41 = icmp uge i32 %39, %40
  br i1 %41, label %42, label %67

42:                                               ; preds = %30
  %43 = getelementptr inbounds nuw %class.MD5, ptr %10, i32 0, i32 1
  %44 = load i32, ptr %7, align 4, !tbaa !14
  %45 = zext i32 %44 to i64
  %46 = getelementptr inbounds nuw [64 x i8], ptr %43, i64 0, i64 %45
  %47 = load ptr, ptr %5, align 8, !tbaa !18
  %48 = load i32, ptr %8, align 4, !tbaa !14
  %49 = zext i32 %48 to i64
  call void @llvm.memcpy.p0.p0.i64(ptr align 1 %46, ptr align 1 %47, i64 %49, i1 false)
  %50 = getelementptr inbounds nuw %class.MD5, ptr %10, i32 0, i32 1
  %51 = getelementptr inbounds [64 x i8], ptr %50, i64 0, i64 0
  call void @_ZN3MD59transformEPKh(ptr noundef nonnull align 4 dereferenceable(108) %10, ptr noundef %51)
  %52 = load i32, ptr %8, align 4, !tbaa !14
  store i32 %52, ptr %9, align 4, !tbaa !14
  br label %53

53:                                               ; preds = %63, %42
  %54 = load i32, ptr %9, align 4, !tbaa !14
  %55 = add i32 %54, 64
  %56 = load i32, ptr %6, align 4, !tbaa !14
  %57 = icmp ule i32 %55, %56
  br i1 %57, label %58, label %66

58:                                               ; preds = %53
  %59 = load ptr, ptr %5, align 8, !tbaa !18
  %60 = load i32, ptr %9, align 4, !tbaa !14
  %61 = zext i32 %60 to i64
  %62 = getelementptr inbounds nuw i8, ptr %59, i64 %61
  call void @_ZN3MD59transformEPKh(ptr noundef nonnull align 4 dereferenceable(108) %10, ptr noundef %62)
  br label %63

63:                                               ; preds = %58
  %64 = load i32, ptr %9, align 4, !tbaa !14
  %65 = add i32 %64, 64
  store i32 %65, ptr %9, align 4, !tbaa !14
  br label %53, !llvm.loop !32

66:                                               ; preds = %53
  store i32 0, ptr %7, align 4, !tbaa !14
  br label %68

67:                                               ; preds = %30
  store i32 0, ptr %9, align 4, !tbaa !14
  br label %68

68:                                               ; preds = %67, %66
  %69 = getelementptr inbounds nuw %class.MD5, ptr %10, i32 0, i32 1
  %70 = load i32, ptr %7, align 4, !tbaa !14
  %71 = zext i32 %70 to i64
  %72 = getelementptr inbounds nuw [64 x i8], ptr %69, i64 0, i64 %71
  %73 = load ptr, ptr %5, align 8, !tbaa !18
  %74 = load i32, ptr %9, align 4, !tbaa !14
  %75 = zext i32 %74 to i64
  %76 = getelementptr inbounds nuw i8, ptr %73, i64 %75
  %77 = load i32, ptr %6, align 4, !tbaa !14
  %78 = load i32, ptr %9, align 4, !tbaa !14
  %79 = sub i32 %77, %78
  %80 = zext i32 %79 to i64
  call void @llvm.memcpy.p0.p0.i64(ptr align 1 %72, ptr align 1 %76, i64 %80, i1 false)
  call void @llvm.lifetime.end.p0(i64 4, ptr %9) #3
  call void @llvm.lifetime.end.p0(i64 4, ptr %8) #3
  call void @llvm.lifetime.end.p0(i64 4, ptr %7) #3
  ret void
}

; Function Attrs: noinline noreturn nounwind uwtable
define linkonce_odr hidden void @__clang_call_terminate(ptr noundef %0) #11 comdat {
  %2 = call ptr @__cxa_begin_catch(ptr %0) #3
  call void @_ZSt9terminatev() #15
  unreachable
}

; Function Attrs: mustprogress nounwind uwtable
define available_externally noundef ptr @_ZNKSt7__cxx1112basic_stringIcSt11char_traitsIcESaIcEE7_M_dataEv(ptr noundef nonnull align 8 dereferenceable(32) %0) #5 align 2 {
  %2 = alloca ptr, align 8
  store ptr %0, ptr %2, align 8, !tbaa !16
  %3 = load ptr, ptr %2, align 8
  %4 = getelementptr inbounds nuw %"class.std::__cxx11::basic_string", ptr %3, i32 0, i32 0
  %5 = getelementptr inbounds nuw %"struct.std::__cxx11::basic_string<char>::_Alloc_hider", ptr %4, i32 0, i32 0
  %6 = load ptr, ptr %5, align 8, !tbaa !38
  ret ptr %6
}

; Function Attrs: mustprogress uwtable
define void @_ZN3MD56updateEPKcj(ptr noundef nonnull align 4 dereferenceable(108) %0, ptr noundef %1, i32 noundef %2) #4 align 2 {
  %4 = alloca ptr, align 8
  %5 = alloca ptr, align 8
  %6 = alloca i32, align 4
  store ptr %0, ptr %4, align 8, !tbaa !6
  store ptr %1, ptr %5, align 8, !tbaa !18
  store i32 %2, ptr %6, align 4, !tbaa !14
  %7 = load ptr, ptr %4, align 8
  %8 = load ptr, ptr %5, align 8, !tbaa !18
  %9 = load i32, ptr %6, align 4, !tbaa !14
  call void @_ZN3MD56updateEPKhj(ptr noundef nonnull align 4 dereferenceable(108) %7, ptr noundef %8, i32 noundef %9)
  ret void
}

; Function Attrs: mustprogress nounwind uwtable
define available_externally noundef i64 @_ZNKSt7__cxx1112basic_stringIcSt11char_traitsIcESaIcEE6lengthEv(ptr noundef nonnull align 8 dereferenceable(32) %0) #5 align 2 {
  %2 = alloca ptr, align 8
  store ptr %0, ptr %2, align 8, !tbaa !16
  %3 = load ptr, ptr %2, align 8
  %4 = getelementptr inbounds nuw %"class.std::__cxx11::basic_string", ptr %3, i32 0, i32 1
  %5 = load i64, ptr %4, align 8, !tbaa !20
  ret i64 %5
}

; Function Attrs: mustprogress nounwind uwtable
define available_externally noundef ptr @_ZNKSt7__cxx1112basic_stringIcSt11char_traitsIcESaIcEE5c_strEv(ptr noundef nonnull align 8 dereferenceable(32) %0) #5 align 2 personality ptr @__gxx_personality_v0 {
  %2 = alloca ptr, align 8
  store ptr %0, ptr %2, align 8, !tbaa !16
  %3 = load ptr, ptr %2, align 8
  %4 = invoke noundef ptr @_ZNKSt7__cxx1112basic_stringIcSt11char_traitsIcESaIcEE7_M_dataEv(ptr noundef nonnull align 8 dereferenceable(32) %3)
          to label %5 unwind label %6

5:                                                ; preds = %1
  ret ptr %4

6:                                                ; preds = %1
  %7 = landingpad { ptr, i32 }
          catch ptr null
  %8 = extractvalue { ptr, i32 } %7, 0
  call void @__clang_call_terminate(ptr %8) #15
  unreachable
}

; Function Attrs: mustprogress nounwind uwtable
define void @_ZN3MD54initEv(ptr noundef nonnull align 4 dereferenceable(108) %0) #5 align 2 {
  %2 = alloca ptr, align 8
  store ptr %0, ptr %2, align 8, !tbaa !6
  %3 = load ptr, ptr %2, align 8
  %4 = getelementptr inbounds nuw %class.MD5, ptr %3, i32 0, i32 0
  store i8 0, ptr %4, align 4, !tbaa !11
  %5 = getelementptr inbounds nuw %class.MD5, ptr %3, i32 0, i32 2
  %6 = getelementptr inbounds [2 x i32], ptr %5, i64 0, i64 0
  store i32 0, ptr %6, align 4, !tbaa !14
  %7 = getelementptr inbounds nuw %class.MD5, ptr %3, i32 0, i32 2
  %8 = getelementptr inbounds [2 x i32], ptr %7, i64 0, i64 1
  store i32 0, ptr %8, align 4, !tbaa !14
  %9 = getelementptr inbounds nuw %class.MD5, ptr %3, i32 0, i32 3
  %10 = getelementptr inbounds [4 x i32], ptr %9, i64 0, i64 0
  store i32 1732584193, ptr %10, align 4, !tbaa !14
  %11 = getelementptr inbounds nuw %class.MD5, ptr %3, i32 0, i32 3
  %12 = getelementptr inbounds [4 x i32], ptr %11, i64 0, i64 1
  store i32 -271733879, ptr %12, align 4, !tbaa !14
  %13 = getelementptr inbounds nuw %class.MD5, ptr %3, i32 0, i32 3
  %14 = getelementptr inbounds [4 x i32], ptr %13, i64 0, i64 2
  store i32 -1732584194, ptr %14, align 4, !tbaa !14
  %15 = getelementptr inbounds nuw %class.MD5, ptr %3, i32 0, i32 3
  %16 = getelementptr inbounds [4 x i32], ptr %15, i64 0, i64 3
  store i32 271733878, ptr %16, align 4, !tbaa !14
  ret void
}

; Function Attrs: mustprogress uwtable
define void @_ZN3MD5C2ERKNSt7__cxx1112basic_stringIcSt11char_traitsIcESaIcEEE(ptr noundef nonnull align 4 dereferenceable(108) %0, ptr noundef nonnull align 8 dereferenceable(32) %1) unnamed_addr #4 align 2 {
  %3 = alloca ptr, align 8
  %4 = alloca ptr, align 8
  store ptr %0, ptr %3, align 8, !tbaa !6
  store ptr %1, ptr %4, align 8, !tbaa !16
  %5 = load ptr, ptr %3, align 8
  call void @_ZN3MD54initEv(ptr noundef nonnull align 4 dereferenceable(108) %5)
  %6 = load ptr, ptr %4, align 8, !tbaa !16
  %7 = call noundef ptr @_ZNKSt7__cxx1112basic_stringIcSt11char_traitsIcESaIcEE5c_strEv(ptr noundef nonnull align 8 dereferenceable(32) %6) #3
  %8 = load ptr, ptr %4, align 8, !tbaa !16
  %9 = call noundef i64 @_ZNKSt7__cxx1112basic_stringIcSt11char_traitsIcESaIcEE6lengthEv(ptr noundef nonnull align 8 dereferenceable(32) %8) #3
  %10 = trunc i64 %9 to i32
  call void @_ZN3MD56updateEPKcj(ptr noundef nonnull align 4 dereferenceable(108) %5, ptr noundef %7, i32 noundef %10)
  %11 = call noundef nonnull align 4 dereferenceable(108) ptr @_ZN3MD58finalizeEv(ptr noundef nonnull align 4 dereferenceable(108) %5)
  ret void
}