; Function Attrs: mustprogress nofree norecurse nosync nounwind memory(readwrite, inaccessiblemem: none) uwtable
define void @_ZN3MD5C2ERKNSt7__cxx1112basic_stringIcSt11char_traitsIcESaIcEEE(ptr noundef nonnull align 4 dereferenceable(108) initializes((0, 1), (68, 92)) %0, ptr noundef nonnull readonly align 8 captures(none) dereferenceable(32) %1) unnamed_addr #4 align 2 personality ptr @__gxx_personality_v0 {
  store i8 0, ptr %0, align 4, !tbaa !6
  %3 = getelementptr inbounds nuw i8, ptr %0, i64 68
  %4 = getelementptr inbounds nuw i8, ptr %0, i64 72
  %5 = getelementptr inbounds nuw i8, ptr %0, i64 76
  store i32 1732584193, ptr %5, align 4, !tbaa !11
  %6 = getelementptr inbounds nuw i8, ptr %0, i64 80
  store i32 -271733879, ptr %6, align 4, !tbaa !11
  %7 = getelementptr inbounds nuw i8, ptr %0, i64 84
  store i32 -1732584194, ptr %7, align 4, !tbaa !11
  %8 = getelementptr inbounds nuw i8, ptr %0, i64 88
  store i32 271733878, ptr %8, align 4, !tbaa !11
  %9 = load ptr, ptr %1, align 8, !tbaa !13
  %10 = getelementptr inbounds nuw i8, ptr %1, i64 8
  %11 = load i64, ptr %10, align 8, !tbaa !19
  %12 = trunc i64 %11 to i32
  %13 = shl i32 %12, 3
  store i32 %13, ptr %3, align 4, !tbaa !11
  %14 = lshr i32 %12, 29
  store i32 %14, ptr %4, align 4, !tbaa !11
  %.not.i.i = icmp ult i32 %12, 64
  br i1 %.not.i.i, label %_ZN3MD56updateEPKcj.exit, label %15

15:                                               ; preds = %2
  %16 = getelementptr inbounds nuw i8, ptr %0, i64 1
  tail call void @llvm.memcpy.p0.p0.i64(ptr noundef nonnull align 1 dereferenceable(64) %16, ptr noundef nonnull readonly align 1 dereferenceable(64) %9, i64 64, i1 false)
  tail call void @_ZN3MD59transformEPKh(ptr noundef nonnull align 4 dereferenceable(108) %0, ptr noundef nonnull %16)
  %.not2425.i.i = icmp ult i32 %12, 128
  br i1 %.not2425.i.i, label %_ZN3MD56updateEPKcj.exit, label %.lr.ph.i.i

.lr.ph.i.i:                                       ; preds = %15, %.lr.ph.i.i
  %17 = phi i32 [ %20, %.lr.ph.i.i ], [ 128, %15 ]
  %.026.i.i = phi i32 [ %17, %.lr.ph.i.i ], [ 64, %15 ]
  %18 = zext i32 %.026.i.i to i64
  %19 = getelementptr inbounds nuw i8, ptr %9, i64 %18
  tail call void @_ZN3MD59transformEPKh(ptr noundef nonnull align 4 dereferenceable(108) %0, ptr noundef nonnull readonly %19)
  %20 = add i32 %17, 64
  %.not24.i.i = icmp ugt i32 %20, %12
  br i1 %.not24.i.i, label %_ZN3MD56updateEPKcj.exit, label %.lr.ph.i.i, !llvm.loop !20

_ZN3MD56updateEPKcj.exit:                         ; preds = %.lr.ph.i.i, %2, %15
  %.1.i.i = phi i32 [ 64, %15 ], [ 0, %2 ], [ %17, %.lr.ph.i.i ]
  %21 = getelementptr inbounds nuw i8, ptr %0, i64 1
  %22 = zext i32 %.1.i.i to i64
  %23 = getelementptr inbounds nuw i8, ptr %9, i64 %22
  %24 = sub i32 %12, %.1.i.i
  %25 = zext i32 %24 to i64
  tail call void @llvm.memcpy.p0.p0.i64(ptr nonnull align 1 %21, ptr readonly align 1 %23, i64 %25, i1 false)
  %26 = tail call noundef nonnull align 4 dereferenceable(108) ptr @_ZN3MD58finalizeEv(ptr noundef nonnull align 4 dereferenceable(108) %0)
  ret void
}